target datalayout = "e-m:e-p270:32:32-p271:32:32-p272:64:64-i64:64-i128:128-f80:128-n8:16:32:64-S128"
target triple = "x86_64-pc-linux-gnu"

%struct.solver_params = type { ptr, %class.params_ref }
%class.params_ref = type { ptr }

@.str = private unnamed_addr constant [7 x i8] c"solver\00", align 1
@.str.1 = private unnamed_addr constant [6 x i8] c"slice\00", align 1

; Function Attrs: inlinehint mustprogress nounwind uwtable
define linkonce_odr hidden void @_ZN13solver_paramsD2Ev(ptr noundef nonnull align 8 dereferenceable(16) %0) unnamed_addr #6 comdat align 2 {
  %2 = alloca ptr, align 8
  store ptr %0, ptr %2, align 8, !tbaa !10
  %3 = load ptr, ptr %2, align 8
  %4 = getelementptr inbounds nuw %struct.solver_params, ptr %3, i32 0, i32 1
  call void @_ZN10params_refD1Ev(ptr noundef nonnull align 8 dereferenceable(8) %4) #3
  ret void
}

; Function Attrs: mustprogress uwtable
define linkonce_odr hidden noundef zeroext i1 @_ZNK13solver_params5sliceEv(ptr noundef nonnull align 8 dereferenceable(16) %0) #4 comdat align 2 {
  %2 = alloca ptr, align 8
  store ptr %0, ptr %2, align 8, !tbaa !10
  %3 = load ptr, ptr %2, align 8
  %4 = getelementptr inbounds nuw %struct.solver_params, ptr %3, i32 0, i32 0
  %5 = load ptr, ptr %4, align 8, !tbaa !14
  %6 = getelementptr inbounds nuw %struct.solver_params, ptr %3, i32 0, i32 1
  %7 = call noundef zeroext i1 @_ZNK10params_ref8get_boolEPKcRKS_b(ptr noundef nonnull align 8 dereferenceable(8) %5, ptr noundef @.str.1, ptr noundef nonnull align 8 dereferenceable(8) %6, i1 noundef zeroext false)
  ret i1 %7
}

; Function Attrs: mustprogress uwtable
define linkonce_odr hidden void @_ZN13solver_paramsC2ERK10params_ref(ptr noundef nonnull align 8 dereferenceable(16) %0, ptr noundef nonnull align 8 dereferenceable(8) %1) unnamed_addr #4 comdat align 2 {
  %3 = alloca ptr, align 8
  %4 = alloca ptr, align 8
  store ptr %0, ptr %3, align 8, !tbaa !10
  store ptr %1, ptr %4, align 8, !tbaa !12
  %5 = load ptr, ptr %3, align 8
  %6 = getelementptr inbounds nuw %struct.solver_params, ptr %5, i32 0, i32 0
  %7 = load ptr, ptr %4, align 8, !tbaa !12
  store ptr %7, ptr %6, align 8, !tbaa !12
  %8 = getelementptr inbounds nuw %struct.solver_params, ptr %5, i32 0, i32 1
  call void @_ZN7gparams10get_moduleEPKc(ptr dead_on_unwind writable sret(%class.params_ref) align 8 %8, ptr noundef @.str)
  ret void
}

; Function Attrs: mustprogress uwtable
define hidden noundef ptr @_Z15mk_slice_solverP6solver(ptr noundef %0) #4 personality ptr @__gxx_personality_v0 {
  %2 = alloca ptr, align 8
  %3 = alloca ptr, align 8
  %4 = alloca %struct.solver_params, align 8
  %5 = alloca ptr, align 8
  %6 = alloca i32, align 4
  %7 = alloca i32, align 4
  store ptr %0, ptr %3, align 8, !tbaa !3
  call void @llvm.lifetime.start.p0(i64 16, ptr %4) #3
  %8 = load ptr, ptr %3, align 8, !tbaa !3
  %9 = load ptr, ptr %8, align 8, !tbaa !8
  %10 = getelementptr inbounds ptr, ptr %9, i64 13
  %11 = load ptr, ptr %10, align 8
  %12 = call noundef nonnull align 8 dereferenceable(8) ptr %11(ptr noundef nonnull align 8 dereferenceable(96) %8)
  call void @_ZN13solver_paramsC2ERK10params_ref(ptr noundef nonnull align 8 dereferenceable(16) %4, ptr noundef nonnull align 8 dereferenceable(8) %12)
  %13 = invoke noundef zeroext i1 @_ZNK13solver_params5sliceEv(ptr noundef nonnull align 8 dereferenceable(16) %4)
          to label %14 unwind label %20

14:                                               ; preds = %1
  br i1 %13, label %15, label %24

15:                                               ; preds = %14
  %16 = invoke noalias noundef ptr @_ZN6memory8allocateEm(i64 noundef 288)
          to label %17 unwind label %20

17:                                               ; preds = %15
  %18 = load ptr, ptr %3, align 8, !tbaa !3
  invoke void @_ZN12slice_solverC2EP6solver(ptr noundef nonnull align 8 dereferenceable(284) %16, ptr noundef %18)
          to label %19 unwind label %20

19:                                               ; preds = %17
  store ptr %16, ptr %2, align 8
  store i32 1, ptr %7, align 4
  br label %26

20:                                               ; preds = %17, %15, %1
  %21 = landingpad { ptr, i32 }
          cleanup
  %22 = extractvalue { ptr, i32 } %21, 0
  store ptr %22, ptr %5, align 8
  %23 = extractvalue { ptr, i32 } %21, 1
  store i32 %23, ptr %6, align 4
  call void @_ZN13solver_paramsD2Ev(ptr noundef nonnull align 8 dereferenceable(16) %4) #3
  call void @llvm.lifetime.end.p0(i64 16, ptr %4) #3
  br label %28

24:                                               ; preds = %14
  %25 = load ptr, ptr %3, align 8, !tbaa !3
  store ptr %25, ptr %2, align 8
  store i32 1, ptr %7, align 4
  br label %26

26:                                               ; preds = %24, %19
  call void @_ZN13solver_paramsD2Ev(ptr noundef nonnull align 8 dereferenceable(16) %4) #3
  call void @llvm.lifetime.end.p0(i64 16, ptr %4) #3
  %27 = load ptr, ptr %2, align 8
  ret ptr %27

28:                                               ; preds = %20
  %29 = load ptr, ptr %5, align 8
  %30 = load i32, ptr %6, align 4
  %31 = insertvalue { ptr, i32 } poison, ptr %29, 0
  %32 = insertvalue { ptr, i32 } %31, i32 %30, 1
  resume { ptr, i32 } %32
}