; Function Attrs: mustprogress uwtable
define hidden noundef ptr @_Z15mk_slice_solverP6solver(ptr noundef %0) local_unnamed_addr #3 personality ptr @__gxx_personality_v0 {
  %2 = alloca %struct.solver_params, align 8
  call void @llvm.lifetime.start.p0(i64 16, ptr nonnull %2) #23
  %3 = load ptr, ptr %0, align 8, !tbaa !3
  %4 = getelementptr inbounds nuw i8, ptr %3, i64 104
  %5 = load ptr, ptr %4, align 8
  %6 = tail call noundef nonnull align 8 dereferenceable(8) ptr %5(ptr noundef nonnull align 8 dereferenceable(96) %0)
  store ptr %6, ptr %2, align 8, !tbaa !6
  %7 = getelementptr inbounds nuw i8, ptr %2, i64 8
  call void @_ZN7gparams10get_moduleEPKc(ptr dead_on_unwind nonnull writable sret(%class.params_ref) align 8 %7, ptr noundef nonnull @.str)
  %8 = load ptr, ptr %2, align 8, !tbaa !10
  %9 = invoke noundef zeroext i1 @_ZNK10params_ref8get_boolEPKcRKS_b(ptr noundef nonnull align 8 dereferenceable(8) %8, ptr noundef nonnull @.str.1, ptr noundef nonnull align 8 dereferenceable(8) %7, i1 noundef zeroext false)
          to label %_ZNK13solver_params5sliceEv.exit unwind label %13

_ZNK13solver_params5sliceEv.exit:                 ; preds = %1
  br i1 %9, label %10, label %15

10:                                               ; preds = %_ZNK13solver_params5sliceEv.exit
  %11 = invoke noalias noundef ptr @_ZN6memory8allocateEm(i64 noundef 288)
          to label %12 unwind label %13

12:                                               ; preds = %10
  invoke void @_ZN12slice_solverC2EP6solver(ptr noundef nonnull align 8 dereferenceable(284) %11, ptr noundef nonnull %0)
          to label %15 unwind label %13

13:                                               ; preds = %1, %12, %10
  %14 = landingpad { ptr, i32 }
          cleanup
  call void @_ZN10params_refD1Ev(ptr noundef nonnull align 8 dereferenceable(8) %7) #23
  call void @llvm.lifetime.end.p0(i64 16, ptr nonnull %2) #23
  resume { ptr, i32 } %14

15:                                               ; preds = %_ZNK13solver_params5sliceEv.exit, %12
  %.0 = phi ptr [ %11, %12 ], [ %0, %_ZNK13solver_params5sliceEv.exit ]
  call void @_ZN10params_refD1Ev(ptr noundef nonnull align 8 dereferenceable(8) %7) #23
  call void @llvm.lifetime.end.p0(i64 16, ptr nonnull %2) #23
  ret ptr %.0
}